target datalayout = "e-m:e-p270:32:32-p271:32:32-p272:64:64-i64:64-i128:128-f80:128-n8:16:32:64-S128"
target triple = "x86_64-pc-linux-gnu"

%struct.PyVarObject = type { %struct._object, i64 }
%struct._object = type { %union.anon, ptr }
%union.anon = type { i64 }
%struct.anon = type { i32, i32 }
%union._Py_CODEUNIT = type { i16 }
%struct.anon.0 = type { i8, i8 }
%struct.PyCodeObject = type { %struct.PyVarObject, ptr, ptr, ptr, i32, i32, i32, i32, i32, i32, i32, i32, i32, i32, i32, i32, ptr, ptr, ptr, ptr, ptr, ptr, ptr, ptr, ptr, i64, ptr, i64, i32, ptr, [1 x i8] }
%struct._Py_BackoffCounter = type { i16 }
%struct._PyCoMonitoringData = type { %struct._Py_LocalMonitors, %struct._Py_LocalMonitors, ptr, [8 x i64], ptr, ptr, ptr, ptr }
%struct._Py_LocalMonitors = type { [11 x i8] }
%struct._PyCoLineInstrumentationData = type { i8, [1 x i8] }
%struct._PyLegacyBranchEventHandler = type { %struct._object, ptr, ptr, i8, i32 }

@_PyInstrumentation_DISABLE = hidden global { { %struct.anon }, ptr } { { %struct.anon } { %struct.anon { i32 -1073741824, i32 128 } }, ptr @PyBaseObject_Type }, align 8
@_PyOpcode_Caches = external constant [256 x i8], align 16

; Function Attrs: inlinehint nounwind uwtable
define internal i16 @make_backoff_counter(i16 noundef zeroext %0, i16 noundef zeroext %1) #2 {
  %3 = alloca %struct._Py_BackoffCounter, align 2
  %4 = alloca i16, align 2
  %5 = alloca i16, align 2
  store i16 %0, ptr %4, align 2, !tbaa !13
  store i16 %1, ptr %5, align 2, !tbaa !13
  %6 = load i16, ptr %4, align 2, !tbaa !13
  %7 = zext i16 %6 to i32
  %8 = shl i32 %7, 4
  %9 = load i16, ptr %5, align 2, !tbaa !13
  %10 = zext i16 %9 to i32
  %11 = or i32 %8, %10
  %12 = trunc i32 %11 to i16
  %13 = getelementptr inbounds nuw %struct._Py_BackoffCounter, ptr %3, i32 0, i32 0
  store i16 %12, ptr %13, align 2, !tbaa !194
  %14 = getelementptr inbounds nuw %struct._Py_BackoffCounter, ptr %3, i32 0, i32 0
  %15 = load i16, ptr %14, align 2
  ret i16 %15
}

; Function Attrs: inlinehint nounwind uwtable
define internal i16 @adaptive_counter_bits(i16 noundef zeroext %0, i16 noundef zeroext %1) #2 {
  %3 = alloca %struct._Py_BackoffCounter, align 2
  %4 = alloca i16, align 2
  %5 = alloca i16, align 2
  store i16 %0, ptr %4, align 2, !tbaa !13
  store i16 %1, ptr %5, align 2, !tbaa !13
  %6 = load i16, ptr %4, align 2, !tbaa !13
  %7 = load i16, ptr %5, align 2, !tbaa !13
  %8 = call i16 @make_backoff_counter(i16 noundef zeroext %6, i16 noundef zeroext %7)
  %9 = getelementptr inbounds nuw %struct._Py_BackoffCounter, ptr %3, i32 0, i32 0
  store i16 %8, ptr %9, align 2
  %10 = getelementptr inbounds nuw %struct._Py_BackoffCounter, ptr %3, i32 0, i32 0
  %11 = load i16, ptr %10, align 2
  ret i16 %11
}

; Function Attrs: inlinehint nounwind uwtable
define internal i16 @adaptive_counter_warmup() #2 {
  %1 = alloca %struct._Py_BackoffCounter, align 2
  %2 = call i16 @adaptive_counter_bits(i16 noundef zeroext 1, i16 noundef zeroext 1)
  %3 = getelementptr inbounds nuw %struct._Py_BackoffCounter, ptr %1, i32 0, i32 0
  store i16 %2, ptr %3, align 2
  %4 = getelementptr inbounds nuw %struct._Py_BackoffCounter, ptr %1, i32 0, i32 0
  %5 = load i16, ptr %4, align 2
  ret i16 %5
}

; Function Attrs: inlinehint nounwind uwtable
define internal ptr @get_original_opcode_ptr(ptr noundef %0, i32 noundef %1) #2 {
  %3 = alloca ptr, align 8
  %4 = alloca i32, align 4
  store ptr %0, ptr %3, align 8, !tbaa !12
  store i32 %1, ptr %4, align 4, !tbaa !9
  %5 = load ptr, ptr %3, align 8, !tbaa !12
  %6 = getelementptr inbounds nuw %struct._PyCoLineInstrumentationData, ptr %5, i32 0, i32 1
  %7 = load i32, ptr %4, align 4, !tbaa !9
  %8 = load ptr, ptr %3, align 8, !tbaa !12
  %9 = getelementptr inbounds nuw %struct._PyCoLineInstrumentationData, ptr %8, i32 0, i32 0
  %10 = load i8, ptr %9, align 1, !tbaa !37
  %11 = zext i8 %10 to i32
  %12 = mul i32 %7, %11
  %13 = sext i32 %12 to i64
  %14 = getelementptr [1 x i8], ptr %6, i64 0, i64 %13
  ret ptr %14
}

; Function Attrs: nounwind uwtable
define internal void @de_instrument(ptr noundef %0, ptr noundef %1, ptr noundef %2, i32 noundef %3, i32 noundef %4) #0 {
  %6 = alloca ptr, align 8
  %7 = alloca ptr, align 8
  %8 = alloca ptr, align 8
  %9 = alloca i32, align 4
  %10 = alloca i32, align 4
  %11 = alloca ptr, align 8
  %12 = alloca ptr, align 8
  %13 = alloca i32, align 4
  %14 = alloca i32, align 4
  %15 = alloca i32, align 4
  %16 = alloca %struct._Py_BackoffCounter, align 2
  store ptr %0, ptr %6, align 8, !tbaa !4
  store ptr %1, ptr %7, align 8, !tbaa !12
  store ptr %2, ptr %8, align 8, !tbaa !12
  store i32 %3, ptr %9, align 4, !tbaa !9
  store i32 %4, ptr %10, align 4, !tbaa !9
  call void @llvm.lifetime.start.p0(i64 8, ptr %11) #8
  %17 = load ptr, ptr %7, align 8, !tbaa !12
  %18 = load i32, ptr %9, align 4, !tbaa !9
  %19 = sext i32 %18 to i64
  %20 = getelementptr %union._Py_CODEUNIT, ptr %17, i64 %19
  store ptr %20, ptr %11, align 8, !tbaa !12
  call void @llvm.lifetime.start.p0(i64 8, ptr %12) #8
  %21 = load ptr, ptr %11, align 8, !tbaa !12
  %22 = getelementptr inbounds nuw %struct.anon.0, ptr %21, i32 0, i32 0
  store ptr %22, ptr %12, align 8, !tbaa !56
  call void @llvm.lifetime.start.p0(i64 4, ptr %13) #8
  %23 = load ptr, ptr %12, align 8, !tbaa !56
  %24 = load i8, ptr %23, align 1, !tbaa !11
  %25 = zext i8 %24 to i32
  store i32 %25, ptr %13, align 4, !tbaa !9
  %26 = load i32, ptr %13, align 4, !tbaa !9
  %27 = icmp eq i32 %26, 254
  br i1 %27, label %28, label %37

28:                                               ; preds = %5
  %29 = load ptr, ptr %8, align 8, !tbaa !12
  %30 = getelementptr inbounds nuw %struct._PyCoMonitoringData, ptr %29, i32 0, i32 4
  %31 = load ptr, ptr %30, align 8, !tbaa !32
  %32 = load i32, ptr %9, align 4, !tbaa !9
  %33 = call ptr @get_original_opcode_ptr(ptr noundef %31, i32 noundef %32)
  store ptr %33, ptr %12, align 8, !tbaa !56
  %34 = load ptr, ptr %12, align 8, !tbaa !56
  %35 = load i8, ptr %34, align 1, !tbaa !11
  %36 = zext i8 %35 to i32
  store i32 %36, ptr %13, align 4, !tbaa !9
  br label %37

37:                                               ; preds = %28, %5
  %38 = load i32, ptr %13, align 4, !tbaa !9
  %39 = icmp eq i32 %38, 239
  br i1 %39, label %40, label %50

40:                                               ; preds = %37
  %41 = load ptr, ptr %8, align 8, !tbaa !12
  %42 = getelementptr inbounds nuw %struct._PyCoMonitoringData, ptr %41, i32 0, i32 6
  %43 = load ptr, ptr %42, align 8, !tbaa !36
  %44 = load i32, ptr %9, align 4, !tbaa !9
  %45 = sext i32 %44 to i64
  %46 = getelementptr i8, ptr %43, i64 %45
  store ptr %46, ptr %12, align 8, !tbaa !56
  %47 = load ptr, ptr %12, align 8, !tbaa !56
  %48 = load i8, ptr %47, align 1, !tbaa !11
  %49 = zext i8 %48 to i32
  store i32 %49, ptr %13, align 4, !tbaa !9
  br label %50

50:                                               ; preds = %40, %37
  call void @llvm.lifetime.start.p0(i64 4, ptr %14) #8
  %51 = load i32, ptr %13, align 4, !tbaa !9
  %52 = sext i32 %51 to i64
  %53 = getelementptr [256 x i8], ptr @DE_INSTRUMENT, i64 0, i64 %52
  %54 = load i8, ptr %53, align 1, !tbaa !11
  %55 = zext i8 %54 to i32
  store i32 %55, ptr %14, align 4, !tbaa !9
  %56 = load i32, ptr %14, align 4, !tbaa !9
  %57 = icmp eq i32 %56, 0
  br i1 %57, label %58, label %59

58:                                               ; preds = %50
  store i32 1, ptr %15, align 4
  br label %77

59:                                               ; preds = %50
  %60 = load i32, ptr %14, align 4, !tbaa !9
  %61 = trunc i32 %60 to i8
  %62 = load ptr, ptr %12, align 8, !tbaa !56
  store i8 %61, ptr %62, align 1, !tbaa !11
  %63 = load i32, ptr %14, align 4, !tbaa !9
  %64 = sext i32 %63 to i64
  %65 = getelementptr [256 x i8], ptr @_PyOpcode_Caches, i64 0, i64 %64
  %66 = load i8, ptr %65, align 1, !tbaa !11
  %67 = icmp ne i8 %66, 0
  br i1 %67, label %68, label %76

68:                                               ; preds = %59
  %69 = call i16 @adaptive_counter_warmup()
  %70 = getelementptr inbounds nuw %struct._Py_BackoffCounter, ptr %16, i32 0, i32 0
  store i16 %69, ptr %70, align 2
  %71 = getelementptr inbounds nuw %struct._Py_BackoffCounter, ptr %16, i32 0, i32 0
  %72 = load i16, ptr %71, align 2, !tbaa !194
  %73 = load ptr, ptr %11, align 8, !tbaa !12
  %74 = getelementptr %union._Py_CODEUNIT, ptr %73, i64 1
  %75 = getelementptr inbounds nuw %struct._Py_BackoffCounter, ptr %74, i32 0, i32 0
  store i16 %72, ptr %75, align 2, !tbaa !11
  br label %76

76:                                               ; preds = %68, %59
  store i32 0, ptr %15, align 4
  br label %77

77:                                               ; preds = %76, %58
  call void @llvm.lifetime.end.p0(i64 4, ptr %14) #8
  call void @llvm.lifetime.end.p0(i64 4, ptr %13) #8
  call void @llvm.lifetime.end.p0(i64 8, ptr %12) #8
  call void @llvm.lifetime.end.p0(i64 8, ptr %11) #8
  %78 = load i32, ptr %15, align 4
  switch i32 %78, label %80 [
    i32 0, label %79
    i32 1, label %79
  ]

79:                                               ; preds = %77, %77
  ret void

80:                                               ; preds = %77
  unreachable
}

; Function Attrs: nounwind uwtable
define internal void @remove_tools(ptr noundef %0, i32 noundef %1, i32 noundef %2, i32 noundef %3) #0 {
  %5 = alloca ptr, align 8
  %6 = alloca i32, align 4
  %7 = alloca i32, align 4
  %8 = alloca i32, align 4
  %9 = alloca ptr, align 8
  %10 = alloca i8, align 1
  %11 = alloca i8, align 1
  store ptr %0, ptr %5, align 8, !tbaa !4
  store i32 %1, ptr %6, align 4, !tbaa !9
  store i32 %2, ptr %7, align 4, !tbaa !9
  store i32 %3, ptr %8, align 4, !tbaa !9
  call void @llvm.lifetime.start.p0(i64 8, ptr %9) #8
  %12 = load ptr, ptr %5, align 8, !tbaa !4
  %13 = getelementptr inbounds nuw %struct.PyCodeObject, ptr %12, i32 0, i32 26
  %14 = load ptr, ptr %13, align 8, !tbaa !31
  store ptr %14, ptr %9, align 8, !tbaa !12
  call void @llvm.lifetime.start.p0(i64 1, ptr %10) #8
  %15 = load ptr, ptr %9, align 8, !tbaa !12
  %16 = icmp ne ptr %15, null
  br i1 %16, label %17, label %45

17:                                               ; preds = %4
  %18 = load ptr, ptr %9, align 8, !tbaa !12
  %19 = getelementptr inbounds nuw %struct._PyCoMonitoringData, ptr %18, i32 0, i32 2
  %20 = load ptr, ptr %19, align 8, !tbaa !97
  %21 = icmp ne ptr %20, null
  br i1 %21, label %22, label %45

22:                                               ; preds = %17
  %23 = load i32, ptr %8, align 4, !tbaa !9
  %24 = xor i32 %23, -1
  %25 = load ptr, ptr %9, align 8, !tbaa !12
  %26 = getelementptr inbounds nuw %struct._PyCoMonitoringData, ptr %25, i32 0, i32 2
  %27 = load ptr, ptr %26, align 8, !tbaa !97
  %28 = load i32, ptr %6, align 4, !tbaa !9
  %29 = sext i32 %28 to i64
  %30 = getelementptr i8, ptr %27, i64 %29
  %31 = load i8, ptr %30, align 1, !tbaa !11
  %32 = zext i8 %31 to i32
  %33 = and i32 %32, %24
  %34 = trunc i32 %33 to i8
  store i8 %34, ptr %30, align 1, !tbaa !11
  %35 = load ptr, ptr %9, align 8, !tbaa !12
  %36 = getelementptr inbounds nuw %struct._PyCoMonitoringData, ptr %35, i32 0, i32 2
  %37 = load ptr, ptr %36, align 8, !tbaa !97
  %38 = load i32, ptr %6, align 4, !tbaa !9
  %39 = sext i32 %38 to i64
  %40 = getelementptr i8, ptr %37, i64 %39
  %41 = load i8, ptr %40, align 1, !tbaa !11
  %42 = zext i8 %41 to i32
  %43 = icmp eq i32 %42, 0
  %44 = zext i1 %43 to i8
  store i8 %44, ptr %10, align 1, !tbaa !75
  br label %63

45:                                               ; preds = %17, %4
  call void @llvm.lifetime.start.p0(i64 1, ptr %11) #8
  %46 = load ptr, ptr %5, align 8, !tbaa !4
  %47 = getelementptr inbounds nuw %struct.PyCodeObject, ptr %46, i32 0, i32 26
  %48 = load ptr, ptr %47, align 8, !tbaa !31
  %49 = getelementptr inbounds nuw %struct._PyCoMonitoringData, ptr %48, i32 0, i32 1
  %50 = getelementptr inbounds nuw %struct._Py_LocalMonitors, ptr %49, i32 0, i32 0
  %51 = load i32, ptr %7, align 4, !tbaa !9
  %52 = sext i32 %51 to i64
  %53 = getelementptr [11 x i8], ptr %50, i64 0, i64 %52
  %54 = load i8, ptr %53, align 1, !tbaa !11
  store i8 %54, ptr %11, align 1, !tbaa !11
  %55 = load i8, ptr %11, align 1, !tbaa !11
  %56 = zext i8 %55 to i32
  %57 = load i32, ptr %8, align 4, !tbaa !9
  %58 = and i32 %56, %57
  %59 = load i8, ptr %11, align 1, !tbaa !11
  %60 = zext i8 %59 to i32
  %61 = icmp eq i32 %58, %60
  %62 = zext i1 %61 to i8
  store i8 %62, ptr %10, align 1, !tbaa !75
  call void @llvm.lifetime.end.p0(i64 1, ptr %11) #8
  br label %63

63:                                               ; preds = %45, %22
  %64 = load i8, ptr %10, align 1, !tbaa !75, !range !76, !noundef !77
  %65 = trunc i8 %64 to i1
  br i1 %65, label %66, label %74

66:                                               ; preds = %63
  %67 = load ptr, ptr %5, align 8, !tbaa !4
  %68 = load ptr, ptr %5, align 8, !tbaa !4
  %69 = getelementptr inbounds nuw %struct.PyCodeObject, ptr %68, i32 0, i32 30
  %70 = getelementptr inbounds [1 x i8], ptr %69, i64 0, i64 0
  %71 = load ptr, ptr %9, align 8, !tbaa !12
  %72 = load i32, ptr %6, align 4, !tbaa !9
  %73 = load i32, ptr %7, align 4, !tbaa !9
  call void @de_instrument(ptr noundef %67, ptr noundef %70, ptr noundef %71, i32 noundef %72, i32 noundef %73)
  br label %74

74:                                               ; preds = %66, %63
  call void @llvm.lifetime.end.p0(i64 1, ptr %10) #8
  call void @llvm.lifetime.end.p0(i64 8, ptr %9) #8
  ret void
}

; Function Attrs: inlinehint nounwind uwtable
define internal zeroext i1 @is_instrumented(i32 noundef %0) #2 {
  %2 = alloca i32, align 4
  store i32 %0, ptr %2, align 4, !tbaa !9
  %3 = load i32, ptr %2, align 4, !tbaa !9
  %4 = icmp sge i32 %3, 235
  ret i1 %4
}

; Function Attrs: nounwind uwtable
define internal ptr @branch_handler(ptr noundef %0, ptr noundef %1, i64 noundef %2, ptr noundef %3) #0 {
  %5 = alloca ptr, align 8
  %6 = alloca ptr, align 8
  %7 = alloca ptr, align 8
  %8 = alloca i64, align 8
  %9 = alloca ptr, align 8
  %10 = alloca ptr, align 8
  %11 = alloca i32, align 4
  %12 = alloca i32, align 4
  %13 = alloca %union._Py_CODEUNIT, align 2
  %14 = alloca ptr, align 8
  %15 = alloca i32, align 4
  %16 = alloca i32, align 4
  store ptr %0, ptr %6, align 8, !tbaa !174
  store ptr %1, ptr %7, align 8, !tbaa !44
  store i64 %2, ptr %8, align 8, !tbaa !43
  store ptr %3, ptr %9, align 8, !tbaa !53
  call void @llvm.lifetime.start.p0(i64 8, ptr %10) #8
  %17 = load ptr, ptr %7, align 8, !tbaa !44
  %18 = getelementptr ptr, ptr %17, i64 0
  %19 = load ptr, ptr %18, align 8, !tbaa !53
  store ptr %19, ptr %10, align 8, !tbaa !4
  call void @llvm.lifetime.start.p0(i64 4, ptr %11) #8
  %20 = load ptr, ptr %7, align 8, !tbaa !44
  %21 = getelementptr ptr, ptr %20, i64 1
  %22 = load ptr, ptr %21, align 8, !tbaa !53
  %23 = call i64 @PyLong_AsLong(ptr noundef %22)
  %24 = trunc i64 %23 to i32
  store i32 %24, ptr %11, align 4, !tbaa !9
  %25 = call ptr @PyErr_Occurred()
  %26 = icmp ne ptr %25, null
  br i1 %26, label %27, label %28

27:                                               ; preds = %4
  store ptr null, ptr %5, align 8
  store i32 1, ptr %12, align 4
  br label %118

28:                                               ; preds = %4
  call void @llvm.lifetime.start.p0(i64 2, ptr %13) #8
  %29 = load ptr, ptr %10, align 8, !tbaa !4
  %30 = getelementptr inbounds nuw %struct.PyCodeObject, ptr %29, i32 0, i32 30
  %31 = getelementptr inbounds [1 x i8], ptr %30, i64 0, i64 0
  %32 = load i32, ptr %11, align 4, !tbaa !9
  %33 = sdiv i32 %32, 2
  %34 = sext i32 %33 to i64
  %35 = getelementptr %union._Py_CODEUNIT, ptr %31, i64 %34
  call void @llvm.memcpy.p0.p0.i64(ptr align 2 %13, ptr align 2 %35, i64 2, i1 false), !tbaa.struct !218
  %36 = getelementptr inbounds nuw %struct.anon.0, ptr %13, i32 0, i32 0
  %37 = load i8, ptr %36, align 2, !tbaa !11
  %38 = zext i8 %37 to i32
  %39 = call zeroext i1 @is_instrumented(i32 noundef %38)
  br i1 %39, label %41, label %40

40:                                               ; preds = %28
  store ptr @_PyInstrumentation_DISABLE, ptr %5, align 8
  store i32 1, ptr %12, align 4
  br label %117

41:                                               ; preds = %28
  call void @llvm.lifetime.start.p0(i64 8, ptr %14) #8
  %42 = load ptr, ptr %6, align 8, !tbaa !174
  %43 = getelementptr inbounds nuw %struct._PyLegacyBranchEventHandler, ptr %42, i32 0, i32 2
  %44 = load ptr, ptr %43, align 8, !tbaa !176
  %45 = load ptr, ptr %7, align 8, !tbaa !44
  %46 = load i64, ptr %8, align 8, !tbaa !43
  %47 = load ptr, ptr %9, align 8, !tbaa !53
  %48 = call ptr @PyObject_Vectorcall(ptr noundef %44, ptr noundef %45, i64 noundef %46, ptr noundef %47)
  store ptr %48, ptr %14, align 8, !tbaa !53
  %49 = load ptr, ptr %14, align 8, !tbaa !53
  %50 = icmp eq ptr %49, @_PyInstrumentation_DISABLE
  br i1 %50, label %51, label %114

51:                                               ; preds = %41
  call void @llvm.lifetime.start.p0(i64 4, ptr %15) #8
  call void @llvm.lifetime.start.p0(i64 4, ptr %16) #8
  %52 = getelementptr inbounds nuw %struct.anon.0, ptr %13, i32 0, i32 0
  %53 = load i8, ptr %52, align 2, !tbaa !11
  %54 = zext i8 %53 to i32
  %55 = icmp eq i32 %54, 69
  br i1 %55, label %56, label %67

56:                                               ; preds = %51
  %57 = load ptr, ptr %6, align 8, !tbaa !174
  %58 = getelementptr inbounds nuw %struct._PyLegacyBranchEventHandler, ptr %57, i32 0, i32 3
  %59 = load i8, ptr %58, align 8, !tbaa !188, !range !76, !noundef !77
  %60 = trunc i8 %59 to i1
  br i1 %60, label %61, label %64

61:                                               ; preds = %56
  %62 = load i32, ptr %11, align 4, !tbaa !9
  %63 = sdiv i32 %62, 2
  store i32 %63, ptr %15, align 4, !tbaa !9
  store i32 8, ptr %16, align 4, !tbaa !9
  br label %66

64:                                               ; preds = %56
  %65 = load ptr, ptr %14, align 8, !tbaa !53
  store ptr %65, ptr %5, align 8
  store i32 1, ptr %12, align 4
  br label %111

66:                                               ; preds = %61
  br label %103

67:                                               ; preds = %51
  %68 = getelementptr inbounds nuw %struct.anon.0, ptr %13, i32 0, i32 0
  %69 = load i8, ptr %68, align 2, !tbaa !11
  %70 = zext i8 %69 to i32
  %71 = icmp eq i32 %70, 97
  br i1 %71, label %87, label %72

72:                                               ; preds = %67
  %73 = getelementptr inbounds nuw %struct.anon.0, ptr %13, i32 0, i32 0
  %74 = load i8, ptr %73, align 2, !tbaa !11
  %75 = zext i8 %74 to i32
  %76 = icmp eq i32 %75, 100
  br i1 %76, label %87, label %77

77:                                               ; preds = %72
  %78 = getelementptr inbounds nuw %struct.anon.0, ptr %13, i32 0, i32 0
  %79 = load i8, ptr %78, align 2, !tbaa !11
  %80 = zext i8 %79 to i32
  %81 = icmp eq i32 %80, 98
  br i1 %81, label %87, label %82

82:                                               ; preds = %77
  %83 = getelementptr inbounds nuw %struct.anon.0, ptr %13, i32 0, i32 0
  %84 = load i8, ptr %83, align 2, !tbaa !11
  %85 = zext i8 %84 to i32
  %86 = icmp eq i32 %85, 99
  br i1 %86, label %87, label %100

87:                                               ; preds = %82, %77, %72, %67
  %88 = load ptr, ptr %6, align 8, !tbaa !174
  %89 = getelementptr inbounds nuw %struct._PyLegacyBranchEventHandler, ptr %88, i32 0, i32 3
  %90 = load i8, ptr %89, align 8, !tbaa !188, !range !76, !noundef !77
  %91 = trunc i8 %90 to i1
  br i1 %91, label %92, label %96

92:                                               ; preds = %87
  %93 = load i32, ptr %11, align 4, !tbaa !9
  %94 = sdiv i32 %93, 2
  %95 = add i32 %94, 2
  store i32 %95, ptr %15, align 4, !tbaa !9
  store i32 8, ptr %16, align 4, !tbaa !9
  br label %99

96:                                               ; preds = %87
  %97 = load i32, ptr %11, align 4, !tbaa !9
  %98 = sdiv i32 %97, 2
  store i32 %98, ptr %15, align 4, !tbaa !9
  store i32 9, ptr %16, align 4, !tbaa !9
  br label %99

99:                                               ; preds = %96, %92
  br label %102

100:                                              ; preds = %82
  %101 = load ptr, ptr %14, align 8, !tbaa !53
  store ptr %101, ptr %5, align 8
  store i32 1, ptr %12, align 4
  br label %111

102:                                              ; preds = %99
  br label %103

103:                                              ; preds = %102, %66
  %104 = load ptr, ptr %10, align 8, !tbaa !4
  %105 = load i32, ptr %15, align 4, !tbaa !9
  %106 = load i32, ptr %16, align 4, !tbaa !9
  %107 = load ptr, ptr %6, align 8, !tbaa !174
  %108 = getelementptr inbounds nuw %struct._PyLegacyBranchEventHandler, ptr %107, i32 0, i32 4
  %109 = load i32, ptr %108, align 4, !tbaa !189
  %110 = shl i32 1, %109
  call void @remove_tools(ptr noundef %104, i32 noundef %105, i32 noundef %106, i32 noundef %110)
  store i32 0, ptr %12, align 4
  br label %111

111:                                              ; preds = %103, %100, %64
  call void @llvm.lifetime.end.p0(i64 4, ptr %16) #8
  call void @llvm.lifetime.end.p0(i64 4, ptr %15) #8
  %112 = load i32, ptr %12, align 4
  switch i32 %112, label %116 [
    i32 0, label %113
  ]

113:                                              ; preds = %111
  br label %114

114:                                              ; preds = %113, %41
  %115 = load ptr, ptr %14, align 8, !tbaa !53
  store ptr %115, ptr %5, align 8
  store i32 1, ptr %12, align 4
  br label %116

116:                                              ; preds = %114, %111
  call void @llvm.lifetime.end.p0(i64 8, ptr %14) #8
  br label %117

117:                                              ; preds = %116, %40
  call void @llvm.lifetime.end.p0(i64 2, ptr %13) #8
  br label %118

118:                                              ; preds = %117, %27
  call void @llvm.lifetime.end.p0(i64 4, ptr %11) #8
  call void @llvm.lifetime.end.p0(i64 8, ptr %10) #8
  %119 = load ptr, ptr %5, align 8
  ret ptr %119
}