; Function Attrs: nounwind uwtable
define internal ptr @branch_handler(ptr noundef readonly captures(none) %0, ptr noundef %1, i64 noundef %2, ptr noundef %3) #2 {
  %5 = load ptr, ptr %1, align 8, !tbaa !46
  %6 = getelementptr i8, ptr %1, i64 8
  %7 = load ptr, ptr %6, align 8, !tbaa !46
  %8 = tail call i64 @PyLong_AsLong(ptr noundef %7) #11
  %9 = tail call ptr @PyErr_Occurred() #11
  %.not = icmp eq ptr %9, null
  br i1 %.not, label %10, label %remove_tools.exit

10:                                               ; preds = %4
  %11 = trunc i64 %8 to i32
  %12 = getelementptr inbounds nuw i8, ptr %5, i64 208
  %13 = sdiv i32 %11, 2
  %14 = sext i32 %13 to i64
  %15 = getelementptr %union._Py_CODEUNIT, ptr %12, i64 %14
  %.sroa.0.0.copyload = load i8, ptr %15, align 2
  %16 = icmp ugt i8 %.sroa.0.0.copyload, -22
  br i1 %16, label %17, label %remove_tools.exit

17:                                               ; preds = %10
  %18 = getelementptr inbounds nuw i8, ptr %0, i64 24
  %19 = load ptr, ptr %18, align 8, !tbaa !181
  %20 = tail call ptr @PyObject_Vectorcall(ptr noundef %19, ptr noundef nonnull %1, i64 noundef %2, ptr noundef %3) #11
  br label %remove_tools.exit

remove_tools.exit:                                ; preds = %17, %10, %4
  %.039 = phi ptr [ null, %4 ], [ @_PyInstrumentation_DISABLE, %10 ], [ %20, %17 ]
  ret ptr %.039
}